target datalayout = "e-m:e-p270:32:32-p271:32:32-p272:64:64-i64:64-i128:128-f80:128-n8:16:32:64-S128"
target triple = "x86_64-pc-linux-gnu"

@.str.14 = private unnamed_addr constant [24 x i8] c"../openssl/test/v3ext.c\00", align 1
@.str.15 = private unnamed_addr constant [28 x i8] c"Error parsing test options\0A\00", align 1
@.str.16 = private unnamed_addr constant [30 x i8] c"infile = test_get_argument(0)\00", align 1
@infile = internal global ptr null, align 8
@.str.17 = private unnamed_addr constant [13 x i8] c"test_pathlen\00", align 1
@.str.18 = private unnamed_addr constant [10 x i8] c"test_asid\00", align 1
@.str.19 = private unnamed_addr constant [17 x i8] c"test_addr_ranges\00", align 1
@.str.20 = private unnamed_addr constant [16 x i8] c"test_ext_syntax\00", align 1
@.str.21 = private unnamed_addr constant [18 x i8] c"test_addr_fam_len\00", align 1
@.str.22 = private unnamed_addr constant [17 x i8] c"test_addr_subset\00", align 1

; Function Attrs: nounwind uwtable
define dso_local i32 @setup_tests() #0 {
  %1 = alloca i32, align 4
  %2 = call i32 @test_skip_common_options()
  %3 = icmp ne i32 %2, 0
  br i1 %3, label %5, label %4

4:                                                ; preds = %0
  call void (ptr, i32, ptr, ...) @test_error(ptr noundef @.str.14, i32 noundef 471, ptr noundef @.str.15)
  store i32 0, ptr %1, align 4
  br label %11

5:                                                ; preds = %0
  %6 = call ptr @test_get_argument(i64 noundef 0)
  store ptr %6, ptr @infile, align 8, !tbaa !4
  %7 = call i32 @test_ptr(ptr noundef @.str.14, i32 noundef 475, ptr noundef @.str.16, ptr noundef %6)
  %8 = icmp ne i32 %7, 0
  br i1 %8, label %10, label %9

9:                                                ; preds = %5
  store i32 0, ptr %1, align 4
  br label %11

10:                                               ; preds = %5
  call void @add_test(ptr noundef @.str.17, ptr noundef @test_pathlen)
  call void @add_test(ptr noundef @.str.18, ptr noundef @test_asid)
  call void @add_test(ptr noundef @.str.19, ptr noundef @test_addr_ranges)
  call void @add_test(ptr noundef @.str.20, ptr noundef @test_ext_syntax)
  call void @add_test(ptr noundef @.str.21, ptr noundef @test_addr_fam_len)
  call void @add_test(ptr noundef @.str.22, ptr noundef @test_addr_subset)
  store i32 1, ptr %1, align 4
  br label %11

11:                                               ; preds = %10, %9, %4
  %12 = load i32, ptr %1, align 4
  ret i32 %12
}