; Function Attrs: nounwind uwtable
define dso_local range(i32 0, 2) i32 @setup_tests() local_unnamed_addr #1 {
  %1 = tail call i32 @test_skip_common_options() #6
  %.not = icmp eq i32 %1, 0
  br i1 %.not, label %2, label %3

2:                                                ; preds = %0
  tail call void (ptr, i32, ptr, ...) @test_error(ptr noundef nonnull @.str.14, i32 noundef 471, ptr noundef nonnull @.str.15) #6
  br label %7

3:                                                ; preds = %0
  %4 = tail call ptr @test_get_argument(i64 noundef 0) #6
  store ptr %4, ptr @infile, align 8, !tbaa !4
  %5 = tail call i32 @test_ptr(ptr noundef nonnull @.str.14, i32 noundef 475, ptr noundef nonnull @.str.16, ptr noundef %4) #6
  %.not1 = icmp eq i32 %5, 0
  br i1 %.not1, label %7, label %6

6:                                                ; preds = %3
  tail call void @add_test(ptr noundef nonnull @.str.17, ptr noundef nonnull @test_pathlen) #6
  tail call void @add_test(ptr noundef nonnull @.str.18, ptr noundef nonnull @test_asid) #6
  tail call void @add_test(ptr noundef nonnull @.str.19, ptr noundef nonnull @test_addr_ranges) #6
  tail call void @add_test(ptr noundef nonnull @.str.20, ptr noundef nonnull @test_ext_syntax) #6
  tail call void @add_test(ptr noundef nonnull @.str.21, ptr noundef nonnull @test_addr_fam_len) #6
  tail call void @add_test(ptr noundef nonnull @.str.22, ptr noundef nonnull @test_addr_subset) #6
  br label %7

7:                                                ; preds = %3, %6, %2
  %.0 = phi i32 [ 1, %6 ], [ 0, %2 ], [ 0, %3 ]
  ret i32 %.0
}